target datalayout = "e-m:e-p270:32:32-p271:32:32-p272:64:64-i64:64-i128:128-f80:128-n8:16:32:64-S128"
target triple = "x86_64-pc-linux-gnu"

%struct.exr_chunk_info_t = type { i32, i32, i32, i32, i32, i8, i8, i8, i8, i64, i64, i64, i64, i64 }
%struct.exr_coding_channel_info_t = type { ptr, i32, i32, i32, i32, i8, i8, i16, i16, i16, i32, i32, %union.anon }
%union.anon = type { ptr }
%struct._exr_decode_pipeline = type { i64, ptr, i16, i16, i32, ptr, %struct.exr_chunk_info_t, i32, i32, i64, ptr, ptr, i64, ptr, i64, ptr, i64, ptr, i64, ptr, i64, ptr, i64, ptr, ptr, ptr, ptr, ptr, ptr, [5 x %struct.exr_coding_channel_info_t] }

; Function Attrs: nounwind uwtable
define internal void @unpredict_and_reorder(ptr noundef %0, ptr noundef %1, i64 noundef %2) #0 {
  %4 = alloca ptr, align 8
  %5 = alloca ptr, align 8
  %6 = alloca i64, align 8
  %7 = alloca ptr, align 8
  %8 = alloca ptr, align 8
  %9 = alloca ptr, align 8
  %10 = alloca ptr, align 8
  %11 = alloca i32, align 4
  store ptr %0, ptr %4, align 8, !tbaa !3
  store ptr %1, ptr %5, align 8, !tbaa !3
  store i64 %2, ptr %6, align 8, !tbaa !7
  call void @llvm.lifetime.start.p0(i64 8, ptr %7) #5
  %12 = load ptr, ptr %5, align 8, !tbaa !3
  store ptr %12, ptr %7, align 8, !tbaa !9
  call void @llvm.lifetime.start.p0(i64 8, ptr %8) #5
  %13 = load ptr, ptr %7, align 8, !tbaa !9
  %14 = load i64, ptr %6, align 8, !tbaa !7
  %15 = add i64 %14, 1
  %16 = udiv i64 %15, 2
  %17 = getelementptr inbounds nuw i8, ptr %13, i64 %16
  store ptr %17, ptr %8, align 8, !tbaa !9
  call void @llvm.lifetime.start.p0(i64 8, ptr %9) #5
  %18 = load ptr, ptr %4, align 8, !tbaa !3
  store ptr %18, ptr %9, align 8, !tbaa !9
  call void @llvm.lifetime.start.p0(i64 8, ptr %10) #5
  %19 = load ptr, ptr %7, align 8, !tbaa !9
  %20 = load i64, ptr %6, align 8, !tbaa !7
  %21 = getelementptr inbounds nuw i8, ptr %19, i64 %20
  store ptr %21, ptr %10, align 8, !tbaa !9
  %22 = load ptr, ptr %7, align 8, !tbaa !9
  %23 = getelementptr inbounds nuw i8, ptr %22, i32 1
  store ptr %23, ptr %7, align 8, !tbaa !9
  br label %24

24:                                               ; preds = %28, %3
  %25 = load ptr, ptr %7, align 8, !tbaa !9
  %26 = load ptr, ptr %10, align 8, !tbaa !9
  %27 = icmp ult ptr %25, %26
  br i1 %27, label %28, label %45

28:                                               ; preds = %24
  call void @llvm.lifetime.start.p0(i64 4, ptr %11) #5
  %29 = load ptr, ptr %7, align 8, !tbaa !9
  %30 = getelementptr inbounds i8, ptr %29, i64 -1
  %31 = load i8, ptr %30, align 1, !tbaa !11
  %32 = sext i8 %31 to i32
  %33 = load ptr, ptr %7, align 8, !tbaa !9
  %34 = getelementptr inbounds i8, ptr %33, i64 0
  %35 = load i8, ptr %34, align 1, !tbaa !11
  %36 = sext i8 %35 to i32
  %37 = add nsw i32 %32, %36
  %38 = sub nsw i32 %37, 128
  store i32 %38, ptr %11, align 4, !tbaa !26
  %39 = load i32, ptr %11, align 4, !tbaa !26
  %40 = trunc i32 %39 to i8
  %41 = load ptr, ptr %7, align 8, !tbaa !9
  %42 = getelementptr inbounds i8, ptr %41, i64 0
  store i8 %40, ptr %42, align 1, !tbaa !11
  %43 = load ptr, ptr %7, align 8, !tbaa !9
  %44 = getelementptr inbounds nuw i8, ptr %43, i32 1
  store ptr %44, ptr %7, align 8, !tbaa !9
  call void @llvm.lifetime.end.p0(i64 4, ptr %11) #5
  br label %24, !llvm.loop !40

45:                                               ; preds = %24
  %46 = load ptr, ptr %5, align 8, !tbaa !3
  store ptr %46, ptr %7, align 8, !tbaa !9
  %47 = load ptr, ptr %9, align 8, !tbaa !9
  %48 = load i64, ptr %6, align 8, !tbaa !7
  %49 = getelementptr inbounds nuw i8, ptr %47, i64 %48
  store ptr %49, ptr %10, align 8, !tbaa !9
  br label %50

50:                                               ; preds = %69, %45
  %51 = load ptr, ptr %9, align 8, !tbaa !9
  %52 = load ptr, ptr %10, align 8, !tbaa !9
  %53 = icmp ult ptr %51, %52
  br i1 %53, label %54, label %70

54:                                               ; preds = %50
  %55 = load ptr, ptr %7, align 8, !tbaa !9
  %56 = getelementptr inbounds nuw i8, ptr %55, i32 1
  store ptr %56, ptr %7, align 8, !tbaa !9
  %57 = load i8, ptr %55, align 1, !tbaa !11
  %58 = load ptr, ptr %9, align 8, !tbaa !9
  %59 = getelementptr inbounds nuw i8, ptr %58, i32 1
  store ptr %59, ptr %9, align 8, !tbaa !9
  store i8 %57, ptr %58, align 1, !tbaa !11
  %60 = load ptr, ptr %9, align 8, !tbaa !9
  %61 = load ptr, ptr %10, align 8, !tbaa !9
  %62 = icmp ult ptr %60, %61
  br i1 %62, label %63, label %69

63:                                               ; preds = %54
  %64 = load ptr, ptr %8, align 8, !tbaa !9
  %65 = getelementptr inbounds nuw i8, ptr %64, i32 1
  store ptr %65, ptr %8, align 8, !tbaa !9
  %66 = load i8, ptr %64, align 1, !tbaa !11
  %67 = load ptr, ptr %9, align 8, !tbaa !9
  %68 = getelementptr inbounds nuw i8, ptr %67, i32 1
  store ptr %68, ptr %9, align 8, !tbaa !9
  store i8 %66, ptr %67, align 1, !tbaa !11
  br label %69

69:                                               ; preds = %63, %54
  br label %50, !llvm.loop !41

70:                                               ; preds = %50
  call void @llvm.lifetime.end.p0(i64 8, ptr %10) #5
  call void @llvm.lifetime.end.p0(i64 8, ptr %9) #5
  call void @llvm.lifetime.end.p0(i64 8, ptr %8) #5
  call void @llvm.lifetime.end.p0(i64 8, ptr %7) #5
  ret void
}

; Function Attrs: nounwind uwtable
define hidden i64 @internal_rle_decompress(ptr noundef %0, i64 noundef %1, ptr noundef %2, i64 noundef %3) #0 {
  %5 = alloca i64, align 8
  %6 = alloca ptr, align 8
  %7 = alloca i64, align 8
  %8 = alloca ptr, align 8
  %9 = alloca i64, align 8
  %10 = alloca ptr, align 8
  %11 = alloca ptr, align 8
  %12 = alloca i64, align 8
  %13 = alloca i64, align 8
  %14 = alloca i64, align 8
  %15 = alloca i32, align 4
  %16 = alloca i64, align 8
  store ptr %0, ptr %6, align 8, !tbaa !9
  store i64 %1, ptr %7, align 8, !tbaa !7
  store ptr %2, ptr %8, align 8, !tbaa !9
  store i64 %3, ptr %9, align 8, !tbaa !7
  call void @llvm.lifetime.start.p0(i64 8, ptr %10) #5
  %17 = load ptr, ptr %8, align 8, !tbaa !9
  store ptr %17, ptr %10, align 8, !tbaa !9
  call void @llvm.lifetime.start.p0(i64 8, ptr %11) #5
  %18 = load ptr, ptr %6, align 8, !tbaa !9
  store ptr %18, ptr %11, align 8, !tbaa !9
  call void @llvm.lifetime.start.p0(i64 8, ptr %12) #5
  store i64 0, ptr %12, align 8, !tbaa !7
  call void @llvm.lifetime.start.p0(i64 8, ptr %13) #5
  store i64 0, ptr %13, align 8, !tbaa !7
  br label %19

19:                                               ; preds = %108, %4
  %20 = load i64, ptr %12, align 8, !tbaa !7
  %21 = load i64, ptr %9, align 8, !tbaa !7
  %22 = icmp ult i64 %20, %21
  br i1 %22, label %23, label %109

23:                                               ; preds = %19
  %24 = load ptr, ptr %10, align 8, !tbaa !9
  %25 = load i8, ptr %24, align 1, !tbaa !11
  %26 = sext i8 %25 to i32
  %27 = icmp slt i32 %26, 0
  br i1 %27, label %28, label %69

28:                                               ; preds = %23
  call void @llvm.lifetime.start.p0(i64 8, ptr %14) #5
  %29 = load ptr, ptr %10, align 8, !tbaa !9
  %30 = getelementptr inbounds nuw i8, ptr %29, i32 1
  store ptr %30, ptr %10, align 8, !tbaa !9
  %31 = load i8, ptr %29, align 1, !tbaa !11
  %32 = sext i8 %31 to i32
  %33 = sub nsw i32 0, %32
  %34 = sext i32 %33 to i64
  store i64 %34, ptr %14, align 8, !tbaa !7
  %35 = load i64, ptr %12, align 8, !tbaa !7
  %36 = add i64 %35, 1
  store i64 %36, ptr %12, align 8, !tbaa !7
  %37 = load i64, ptr %12, align 8, !tbaa !7
  %38 = load i64, ptr %14, align 8, !tbaa !7
  %39 = add i64 %37, %38
  %40 = load i64, ptr %9, align 8, !tbaa !7
  %41 = icmp ugt i64 %39, %40
  br i1 %41, label %42, label %43

42:                                               ; preds = %28
  store i64 0, ptr %5, align 8
  store i32 1, ptr %15, align 4
  br label %66

43:                                               ; preds = %28
  %44 = load i64, ptr %13, align 8, !tbaa !7
  %45 = load i64, ptr %14, align 8, !tbaa !7
  %46 = add i64 %44, %45
  %47 = load i64, ptr %7, align 8, !tbaa !7
  %48 = icmp ugt i64 %46, %47
  br i1 %48, label %49, label %50

49:                                               ; preds = %43
  store i64 0, ptr %5, align 8
  store i32 1, ptr %15, align 4
  br label %66

50:                                               ; preds = %43
  %51 = load ptr, ptr %11, align 8, !tbaa !9
  %52 = load ptr, ptr %10, align 8, !tbaa !9
  %53 = load i64, ptr %14, align 8, !tbaa !7
  call void @llvm.memcpy.p0.p0.i64(ptr align 1 %51, ptr align 1 %52, i64 %53, i1 false)
  %54 = load i64, ptr %14, align 8, !tbaa !7
  %55 = load ptr, ptr %10, align 8, !tbaa !9
  %56 = getelementptr inbounds nuw i8, ptr %55, i64 %54
  store ptr %56, ptr %10, align 8, !tbaa !9
  %57 = load i64, ptr %14, align 8, !tbaa !7
  %58 = load ptr, ptr %11, align 8, !tbaa !9
  %59 = getelementptr inbounds nuw i8, ptr %58, i64 %57
  store ptr %59, ptr %11, align 8, !tbaa !9
  %60 = load i64, ptr %14, align 8, !tbaa !7
  %61 = load i64, ptr %12, align 8, !tbaa !7
  %62 = add i64 %61, %60
  store i64 %62, ptr %12, align 8, !tbaa !7
  %63 = load i64, ptr %14, align 8, !tbaa !7
  %64 = load i64, ptr %13, align 8, !tbaa !7
  %65 = add i64 %64, %63
  store i64 %65, ptr %13, align 8, !tbaa !7
  store i32 0, ptr %15, align 4
  br label %66

66:                                               ; preds = %50, %49, %42
  call void @llvm.lifetime.end.p0(i64 8, ptr %14) #5
  %67 = load i32, ptr %15, align 4
  switch i32 %67, label %111 [
    i32 0, label %68
  ]

68:                                               ; preds = %66
  br label %108

69:                                               ; preds = %23
  call void @llvm.lifetime.start.p0(i64 8, ptr %16) #5
  %70 = load ptr, ptr %10, align 8, !tbaa !9
  %71 = getelementptr inbounds nuw i8, ptr %70, i32 1
  store ptr %71, ptr %10, align 8, !tbaa !9
  %72 = load i8, ptr %70, align 1, !tbaa !11
  %73 = sext i8 %72 to i64
  store i64 %73, ptr %16, align 8, !tbaa !7
  %74 = load i64, ptr %12, align 8, !tbaa !7
  %75 = add i64 %74, 2
  %76 = load i64, ptr %9, align 8, !tbaa !7
  %77 = icmp ugt i64 %75, %76
  br i1 %77, label %78, label %79

78:                                               ; preds = %69
  store i64 0, ptr %5, align 8
  store i32 1, ptr %15, align 4
  br label %105

79:                                               ; preds = %69
  %80 = load i64, ptr %12, align 8, !tbaa !7
  %81 = add i64 %80, 2
  store i64 %81, ptr %12, align 8, !tbaa !7
  %82 = load i64, ptr %16, align 8, !tbaa !7
  %83 = add i64 %82, 1
  store i64 %83, ptr %16, align 8, !tbaa !7
  %84 = load i64, ptr %13, align 8, !tbaa !7
  %85 = load i64, ptr %16, align 8, !tbaa !7
  %86 = add i64 %84, %85
  %87 = load i64, ptr %7, align 8, !tbaa !7
  %88 = icmp ugt i64 %86, %87
  br i1 %88, label %89, label %90

89:                                               ; preds = %79
  store i64 0, ptr %5, align 8
  store i32 1, ptr %15, align 4
  br label %105

90:                                               ; preds = %79
  %91 = load ptr, ptr %11, align 8, !tbaa !9
  %92 = load ptr, ptr %10, align 8, !tbaa !9
  %93 = load i8, ptr %92, align 1, !tbaa !11
  %94 = zext i8 %93 to i32
  %95 = trunc i32 %94 to i8
  %96 = load i64, ptr %16, align 8, !tbaa !7
  call void @llvm.memset.p0.i64(ptr align 1 %91, i8 %95, i64 %96, i1 false)
  %97 = load i64, ptr %16, align 8, !tbaa !7
  %98 = load ptr, ptr %11, align 8, !tbaa !9
  %99 = getelementptr inbounds nuw i8, ptr %98, i64 %97
  store ptr %99, ptr %11, align 8, !tbaa !9
  %100 = load i64, ptr %16, align 8, !tbaa !7
  %101 = load i64, ptr %13, align 8, !tbaa !7
  %102 = add i64 %101, %100
  store i64 %102, ptr %13, align 8, !tbaa !7
  %103 = load ptr, ptr %10, align 8, !tbaa !9
  %104 = getelementptr inbounds nuw i8, ptr %103, i32 1
  store ptr %104, ptr %10, align 8, !tbaa !9
  store i32 0, ptr %15, align 4
  br label %105

105:                                              ; preds = %90, %89, %78
  call void @llvm.lifetime.end.p0(i64 8, ptr %16) #5
  %106 = load i32, ptr %15, align 4
  switch i32 %106, label %111 [
    i32 0, label %107
  ]

107:                                              ; preds = %105
  br label %108

108:                                              ; preds = %107, %68
  br label %19, !llvm.loop !34

109:                                              ; preds = %19
  %110 = load i64, ptr %13, align 8, !tbaa !7
  store i64 %110, ptr %5, align 8
  store i32 1, ptr %15, align 4
  br label %111

111:                                              ; preds = %109, %105, %66
  call void @llvm.lifetime.end.p0(i64 8, ptr %13) #5
  call void @llvm.lifetime.end.p0(i64 8, ptr %12) #5
  call void @llvm.lifetime.end.p0(i64 8, ptr %11) #5
  call void @llvm.lifetime.end.p0(i64 8, ptr %10) #5
  %112 = load i64, ptr %5, align 8
  ret i64 %112
}

; Function Attrs: nounwind uwtable
define hidden i32 @internal_exr_undo_rle(ptr noundef %0, ptr noundef %1, i64 noundef %2, ptr noundef %3, i64 noundef %4) #0 {
  %6 = alloca i32, align 4
  %7 = alloca ptr, align 8
  %8 = alloca ptr, align 8
  %9 = alloca i64, align 8
  %10 = alloca ptr, align 8
  %11 = alloca i64, align 8
  %12 = alloca i32, align 4
  %13 = alloca i64, align 8
  %14 = alloca i32, align 4
  store ptr %0, ptr %7, align 8, !tbaa !35
  store ptr %1, ptr %8, align 8, !tbaa !3
  store i64 %2, ptr %9, align 8, !tbaa !7
  store ptr %3, ptr %10, align 8, !tbaa !3
  store i64 %4, ptr %11, align 8, !tbaa !7
  call void @llvm.lifetime.start.p0(i64 4, ptr %12) #5
  call void @llvm.lifetime.start.p0(i64 8, ptr %13) #5
  %15 = load i64, ptr %9, align 8, !tbaa !7
  %16 = icmp eq i64 %15, 0
  br i1 %16, label %20, label %17

17:                                               ; preds = %5
  %18 = load ptr, ptr %8, align 8, !tbaa !3
  %19 = icmp eq ptr %18, null
  br i1 %19, label %20, label %23

20:                                               ; preds = %17, %5
  %21 = load ptr, ptr %7, align 8, !tbaa !35
  %22 = getelementptr inbounds nuw %struct._exr_decode_pipeline, ptr %21, i32 0, i32 9
  store i64 0, ptr %22, align 8, !tbaa !37
  store i32 0, ptr %6, align 4
  store i32 1, ptr %14, align 4
  br label %58

23:                                               ; preds = %17
  %24 = load ptr, ptr %7, align 8, !tbaa !35
  %25 = load ptr, ptr %7, align 8, !tbaa !35
  %26 = getelementptr inbounds nuw %struct._exr_decode_pipeline, ptr %25, i32 0, i32 19
  %27 = load ptr, ptr %7, align 8, !tbaa !35
  %28 = getelementptr inbounds nuw %struct._exr_decode_pipeline, ptr %27, i32 0, i32 20
  %29 = load i64, ptr %11, align 8, !tbaa !7
  %30 = call i32 @internal_decode_alloc_buffer(ptr noundef %24, i32 noundef 3, ptr noundef %26, ptr noundef %28, i64 noundef %29)
  store i32 %30, ptr %12, align 4, !tbaa !26
  %31 = load i32, ptr %12, align 4, !tbaa !26
  %32 = icmp ne i32 %31, 0
  br i1 %32, label %33, label %35

33:                                               ; preds = %23
  %34 = load i32, ptr %12, align 4, !tbaa !26
  store i32 %34, ptr %6, align 4
  store i32 1, ptr %14, align 4
  br label %58

35:                                               ; preds = %23
  %36 = load ptr, ptr %7, align 8, !tbaa !35
  %37 = getelementptr inbounds nuw %struct._exr_decode_pipeline, ptr %36, i32 0, i32 19
  %38 = load ptr, ptr %37, align 8, !tbaa !39
  %39 = load i64, ptr %11, align 8, !tbaa !7
  %40 = load ptr, ptr %8, align 8, !tbaa !3
  %41 = load i64, ptr %9, align 8, !tbaa !7
  %42 = call i64 @internal_rle_decompress(ptr noundef %38, i64 noundef %39, ptr noundef %40, i64 noundef %41)
  store i64 %42, ptr %13, align 8, !tbaa !7
  %43 = load i64, ptr %9, align 8, !tbaa !7
  %44 = icmp ugt i64 %43, 0
  br i1 %44, label %45, label %49

45:                                               ; preds = %35
  %46 = load i64, ptr %13, align 8, !tbaa !7
  %47 = icmp eq i64 %46, 0
  br i1 %47, label %48, label %49

48:                                               ; preds = %45
  store i32 23, ptr %6, align 4
  store i32 1, ptr %14, align 4
  br label %58

49:                                               ; preds = %45, %35
  %50 = load ptr, ptr %10, align 8, !tbaa !3
  %51 = load ptr, ptr %7, align 8, !tbaa !35
  %52 = getelementptr inbounds nuw %struct._exr_decode_pipeline, ptr %51, i32 0, i32 19
  %53 = load ptr, ptr %52, align 8, !tbaa !39
  %54 = load i64, ptr %13, align 8, !tbaa !7
  call void @unpredict_and_reorder(ptr noundef %50, ptr noundef %53, i64 noundef %54)
  %55 = load i64, ptr %13, align 8, !tbaa !7
  %56 = load ptr, ptr %7, align 8, !tbaa !35
  %57 = getelementptr inbounds nuw %struct._exr_decode_pipeline, ptr %56, i32 0, i32 9
  store i64 %55, ptr %57, align 8, !tbaa !37
  store i32 0, ptr %6, align 4
  store i32 1, ptr %14, align 4
  br label %58

58:                                               ; preds = %49, %48, %33, %20
  call void @llvm.lifetime.end.p0(i64 8, ptr %13) #5
  call void @llvm.lifetime.end.p0(i64 4, ptr %12) #5
  %59 = load i32, ptr %6, align 4
  ret i32 %59
}