; Function Attrs: nounwind uwtable
define hidden i32 @internal_exr_undo_rle(ptr noundef %0, ptr noundef readonly %1, i64 noundef %2, ptr noundef writeonly %3, i64 noundef %4) local_unnamed_addr #1 {
  %6 = icmp eq i64 %2, 0
  %7 = icmp eq ptr %1, null
  %or.cond = or i1 %7, %6
  br i1 %or.cond, label %internal_rle_decompress.exit.thread.sink.split, label %8

8:                                                ; preds = %5
  %9 = getelementptr inbounds nuw i8, ptr %0, i64 184
  %10 = getelementptr inbounds nuw i8, ptr %0, i64 192
  %11 = tail call i32 @internal_decode_alloc_buffer(ptr noundef %0, i32 noundef 3, ptr noundef nonnull %9, ptr noundef nonnull %10, i64 noundef %4) #7
  %.not = icmp eq i32 %11, 0
  br i1 %.not, label %12, label %internal_rle_decompress.exit.thread

12:                                               ; preds = %8
  %13 = load ptr, ptr %9, align 8, !tbaa !26
  br label %.lr.ph.i

.lr.ph.i:                                         ; preds = %12, %39
  %.04683.i = phi i64 [ %.248.i, %39 ], [ 0, %12 ]
  %.05082.i = phi i64 [ %.252.i, %39 ], [ 0, %12 ]
  %.05481.i = phi ptr [ %.256.i, %39 ], [ %13, %12 ]
  %.05880.i = phi ptr [ %.260.i, %39 ], [ %1, %12 ]
  %14 = load i8, ptr %.05880.i, align 1, !tbaa !3
  %15 = icmp slt i8 %14, 0
  br i1 %15, label %16, label %28

16:                                               ; preds = %.lr.ph.i
  %17 = sext i8 %14 to i64
  %18 = sub nsw i64 0, %17
  %19 = getelementptr inbounds nuw i8, ptr %.05880.i, i64 1
  %20 = add nuw i64 %.05082.i, 1
  %21 = sub i64 %20, %17
  %22 = icmp ugt i64 %21, %2
  br i1 %22, label %internal_rle_decompress.exit.thread, label %23

23:                                               ; preds = %16
  %24 = sub i64 %.04683.i, %17
  %25 = icmp ugt i64 %24, %4
  br i1 %25, label %internal_rle_decompress.exit.thread, label %26

26:                                               ; preds = %23
  tail call void @llvm.memcpy.p0.p0.i64(ptr align 1 %.05481.i, ptr nonnull align 1 %19, i64 %18, i1 false)
  %27 = getelementptr inbounds nuw i8, ptr %19, i64 %18
  br label %39

28:                                               ; preds = %.lr.ph.i
  %29 = getelementptr inbounds nuw i8, ptr %.05880.i, i64 1
  %30 = add i64 %.05082.i, 2
  %31 = icmp ugt i64 %30, %2
  br i1 %31, label %internal_rle_decompress.exit.thread, label %32

32:                                               ; preds = %28
  %narrow.i = add nuw i8 %14, 1
  %33 = zext i8 %narrow.i to i64
  %34 = add i64 %.04683.i, %33
  %35 = icmp ugt i64 %34, %4
  br i1 %35, label %internal_rle_decompress.exit.thread, label %36

36:                                               ; preds = %32
  %37 = load i8, ptr %29, align 1, !tbaa !3
  tail call void @llvm.memset.p0.i64(ptr noundef nonnull align 1 dereferenceable(1) %.05481.i, i8 %37, i64 %33, i1 false)
  %38 = getelementptr inbounds nuw i8, ptr %.05880.i, i64 2
  br label %39

39:                                               ; preds = %36, %26
  %.260.i = phi ptr [ %27, %26 ], [ %38, %36 ]
  %.pn.i = phi i64 [ %18, %26 ], [ %33, %36 ]
  %.252.i = phi i64 [ %21, %26 ], [ %30, %36 ]
  %.248.i = phi i64 [ %24, %26 ], [ %34, %36 ]
  %.256.i = getelementptr inbounds nuw i8, ptr %.05481.i, i64 %.pn.i
  %40 = icmp ult i64 %.252.i, %2
  br i1 %40, label %.lr.ph.i, label %internal_rle_decompress.exit, !llvm.loop !25

internal_rle_decompress.exit:                     ; preds = %39
  %41 = icmp eq i64 %.248.i, 0
  br i1 %41, label %internal_rle_decompress.exit.thread, label %42

42:                                               ; preds = %internal_rle_decompress.exit
  %43 = load ptr, ptr %9, align 8, !tbaa !26
  %44 = add i64 %.248.i, 1
  %45 = lshr i64 %44, 1
  %46 = getelementptr inbounds nuw i8, ptr %43, i64 %45
  %47 = getelementptr inbounds nuw i8, ptr %43, i64 %.248.i
  %.not29 = icmp eq i64 %.248.i, 1
  br i1 %.not29, label %.lr.ph38.preheader.i, label %.lr.ph.preheader.i

.lr.ph.preheader.i:                               ; preds = %42
  %.031.i = getelementptr inbounds nuw i8, ptr %43, i64 1
  %.pre.i = load i8, ptr %43, align 1, !tbaa !3
  br label %.lr.ph.i27

.lr.ph.i27:                                       ; preds = %.lr.ph.i27, %.lr.ph.preheader.i
  %48 = phi i8 [ %51, %.lr.ph.i27 ], [ %.pre.i, %.lr.ph.preheader.i ]
  %.033.i = phi ptr [ %.0.i, %.lr.ph.i27 ], [ %.031.i, %.lr.ph.preheader.i ]
  %49 = load i8, ptr %.033.i, align 1, !tbaa !3
  %50 = add i8 %49, %48
  %51 = xor i8 %50, -128
  store i8 %51, ptr %.033.i, align 1, !tbaa !3
  %.0.i = getelementptr inbounds nuw i8, ptr %.033.i, i64 1
  %52 = icmp ult ptr %.0.i, %47
  br i1 %52, label %.lr.ph.i27, label %.lr.ph38.preheader.i, !llvm.loop !28

.lr.ph38.preheader.i:                             ; preds = %.lr.ph.i27, %42
  %53 = getelementptr inbounds nuw i8, ptr %3, i64 %.248.i
  br label %.lr.ph38.i

.lr.ph38.i:                                       ; preds = %62, %.lr.ph38.preheader.i
  %.136.i = phi ptr [ %54, %62 ], [ %43, %.lr.ph38.preheader.i ]
  %.02435.i = phi ptr [ %.125.i, %62 ], [ %3, %.lr.ph38.preheader.i ]
  %.02634.i = phi ptr [ %.127.i, %62 ], [ %46, %.lr.ph38.preheader.i ]
  %54 = getelementptr inbounds nuw i8, ptr %.136.i, i64 1
  %55 = load i8, ptr %.136.i, align 1, !tbaa !3
  %56 = getelementptr inbounds nuw i8, ptr %.02435.i, i64 1
  store i8 %55, ptr %.02435.i, align 1, !tbaa !3
  %57 = icmp ult ptr %56, %53
  br i1 %57, label %58, label %62

58:                                               ; preds = %.lr.ph38.i
  %59 = getelementptr inbounds nuw i8, ptr %.02634.i, i64 1
  %60 = load i8, ptr %.02634.i, align 1, !tbaa !3
  %61 = getelementptr inbounds nuw i8, ptr %.02435.i, i64 2
  store i8 %60, ptr %56, align 1, !tbaa !3
  br label %62

62:                                               ; preds = %58, %.lr.ph38.i
  %.127.i = phi ptr [ %59, %58 ], [ %.02634.i, %.lr.ph38.i ]
  %.125.i = phi ptr [ %61, %58 ], [ %56, %.lr.ph38.i ]
  %63 = icmp ult ptr %.125.i, %53
  br i1 %63, label %.lr.ph38.i, label %internal_rle_decompress.exit.thread.sink.split, !llvm.loop !29

internal_rle_decompress.exit.thread.sink.split:   ; preds = %62, %5
  %.248.i.lcssa.sink = phi i64 [ 0, %5 ], [ %.248.i, %62 ]
  %64 = getelementptr inbounds nuw i8, ptr %0, i64 104
  store i64 %.248.i.lcssa.sink, ptr %64, align 8, !tbaa !30
  br label %internal_rle_decompress.exit.thread

internal_rle_decompress.exit.thread:              ; preds = %16, %23, %28, %32, %internal_rle_decompress.exit.thread.sink.split, %internal_rle_decompress.exit, %8
  %.0 = phi i32 [ %11, %8 ], [ 23, %internal_rle_decompress.exit ], [ 0, %internal_rle_decompress.exit.thread.sink.split ], [ 23, %32 ], [ 23, %28 ], [ 23, %23 ], [ 23, %16 ]
  ret i32 %.0
}